target datalayout = "e-m:e-p270:32:32-p271:32:32-p272:64:64-i64:64-i128:128-f80:128-n8:16:32:64-S128"
target triple = "x86_64-unknown-linux-gnu"

%"class.std::__cxx11::basic_string" = type { %"struct.std::__cxx11::basic_string<char>::_Alloc_hider", i64, %union.anon }
%"struct.std::__cxx11::basic_string<char>::_Alloc_hider" = type { ptr }
%union.anon = type { i64, [8 x i8] }
%"class.std::__cxx11::basic_stringstream" = type { %"class.std::basic_iostream.base", %"class.std::__cxx11::basic_stringbuf", %"class.std::basic_ios" }
%"class.std::basic_iostream.base" = type { %"class.std::basic_istream.base", %"class.std::basic_ostream.base" }
%"class.std::basic_istream.base" = type { ptr, i64 }
%"class.std::basic_ostream.base" = type { ptr }
%"class.std::__cxx11::basic_stringbuf" = type { %"class.std::basic_streambuf", i32, %"class.std::__cxx11::basic_string" }
%"class.std::basic_streambuf" = type { ptr, ptr, ptr, ptr, ptr, ptr, ptr, %"class.std::locale" }
%"class.std::locale" = type { ptr }
%"class.std::basic_ios" = type { %"class.std::ios_base", ptr, i8, i8, ptr, ptr, ptr, ptr }
%"class.std::ios_base" = type { ptr, i64, i64, i32, i32, i32, ptr, %"struct.std::ios_base::_Words", [8 x %"struct.std::ios_base::_Words"], i32, ptr, %"class.std::locale" }
%"struct.std::ios_base::_Words" = type { ptr, i64 }
%"struct.std::__detail::_Quoted_string" = type <{ ptr, i8, i8, [6 x i8] }>

; Function Attrs: mustprogress nounwind uwtable
define linkonce_odr void @_ZNSt8__detail14_Quoted_stringIRNSt7__cxx1112basic_stringIcSt11char_traitsIcESaIcEEEcEC2ES7_cc(ptr noundef nonnull align 8 dereferenceable(10) %this, ptr noundef nonnull align 8 dereferenceable(32) %__str, i8 noundef signext %__del, i8 noundef signext %__esc) unnamed_addr #4 comdat align 2 {
entry:
  %this.addr = alloca ptr, align 8
  %__str.addr = alloca ptr, align 8
  %__del.addr = alloca i8, align 1
  %__esc.addr = alloca i8, align 1
  store ptr %this, ptr %this.addr, align 8
  store ptr %__str, ptr %__str.addr, align 8
  store i8 %__del, ptr %__del.addr, align 1
  store i8 %__esc, ptr %__esc.addr, align 1
  %this1 = load ptr, ptr %this.addr, align 8
  %_M_string = getelementptr inbounds %"struct.std::__detail::_Quoted_string", ptr %this1, i32 0, i32 0
  %0 = load ptr, ptr %__str.addr, align 8
  store ptr %0, ptr %_M_string, align 8
  %_M_delim = getelementptr inbounds %"struct.std::__detail::_Quoted_string", ptr %this1, i32 0, i32 1
  %1 = load i8, ptr %__del.addr, align 1
  store i8 %1, ptr %_M_delim, align 8
  %_M_escape = getelementptr inbounds %"struct.std::__detail::_Quoted_string", ptr %this1, i32 0, i32 2
  %2 = load i8, ptr %__esc.addr, align 1
  store i8 %2, ptr %_M_escape, align 1
  ret void
}

; Function Attrs: mustprogress uwtable
define linkonce_odr { ptr, i64 } @_ZSt6quotedIcSt11char_traitsIcESaIcEEDaRNSt7__cxx1112basic_stringIT_T0_T1_EES5_S5_(ptr noundef nonnull align 8 dereferenceable(32) %__string, i8 noundef signext %__delim, i8 noundef signext %__escape) #0 comdat {
entry:
  %retval = alloca %"struct.std::__detail::_Quoted_string", align 8
  %__string.addr = alloca ptr, align 8
  %__delim.addr = alloca i8, align 1
  %__escape.addr = alloca i8, align 1
  store ptr %__string, ptr %__string.addr, align 8
  store i8 %__delim, ptr %__delim.addr, align 1
  store i8 %__escape, ptr %__escape.addr, align 1
  %0 = load ptr, ptr %__string.addr, align 8
  %1 = load i8, ptr %__delim.addr, align 1
  %2 = load i8, ptr %__escape.addr, align 1
  call void @_ZNSt8__detail14_Quoted_stringIRNSt7__cxx1112basic_stringIcSt11char_traitsIcESaIcEEEcEC2ES7_cc(ptr noundef nonnull align 8 dereferenceable(10) %retval, ptr noundef nonnull align 8 dereferenceable(32) %0, i8 noundef signext %1, i8 noundef signext %2)
  %3 = load { ptr, i64 }, ptr %retval, align 8
  ret { ptr, i64 } %3
}

; Function Attrs: mustprogress uwtable
define void @_ZN8facebook5velox16encloseWithQuoteENSt7__cxx1112basic_stringIcSt11char_traitsIcESaIcEEE(ptr noalias sret(%"class.std::__cxx11::basic_string") align 8 %agg.result, ptr noundef %str) #0 personality ptr @__gxx_personality_v0 {
entry:
  %result.ptr = alloca ptr, align 8
  %str.indirect_addr = alloca ptr, align 8
  %kDoubleQuote = alloca i8, align 1
  %ss = alloca %"class.std::__cxx11::basic_stringstream", align 8
  %ref.tmp = alloca %"struct.std::__detail::_Quoted_string", align 8
  %exn.slot = alloca ptr, align 8
  %ehselector.slot = alloca i32, align 4
  store ptr %agg.result, ptr %result.ptr, align 8
  store ptr %str, ptr %str.indirect_addr, align 8
  store i8 34, ptr %kDoubleQuote, align 1
  call void @_ZNSt7__cxx1118basic_stringstreamIcSt11char_traitsIcESaIcEEC1Ev(ptr noundef nonnull align 8 dereferenceable(128) %ss)
  %add.ptr = getelementptr inbounds i8, ptr %ss, i64 16
  %call = invoke { ptr, i64 } @_ZSt6quotedIcSt11char_traitsIcESaIcEEDaRNSt7__cxx1112basic_stringIT_T0_T1_EES5_S5_(ptr noundef nonnull align 8 dereferenceable(32) %str, i8 noundef signext 34, i8 noundef signext 34)
          to label %invoke.cont unwind label %lpad

invoke.cont:                                      ; preds = %entry
  %0 = getelementptr inbounds { ptr, i64 }, ptr %ref.tmp, i32 0, i32 0
  %1 = extractvalue { ptr, i64 } %call, 0
  store ptr %1, ptr %0, align 8
  %2 = getelementptr inbounds { ptr, i64 }, ptr %ref.tmp, i32 0, i32 1
  %3 = extractvalue { ptr, i64 } %call, 1
  store i64 %3, ptr %2, align 8
  %call2 = invoke noundef nonnull align 8 dereferenceable(8) ptr @_ZNSt8__detaillsIcSt11char_traitsIcERNSt7__cxx1112basic_stringIcS2_SaIcEEEEERSt13basic_ostreamIT_T0_ESC_RKNS_14_Quoted_stringIT1_S9_EE(ptr noundef nonnull align 8 dereferenceable(8) %add.ptr, ptr noundef nonnull align 8 dereferenceable(10) %ref.tmp)
          to label %invoke.cont1 unwind label %lpad

invoke.cont1:                                     ; preds = %invoke.cont
  invoke void @_ZNKSt7__cxx1118basic_stringstreamIcSt11char_traitsIcESaIcEE3strEv(ptr sret(%"class.std::__cxx11::basic_string") align 8 %agg.result, ptr noundef nonnull align 8 dereferenceable(128) %ss)
          to label %invoke.cont3 unwind label %lpad

invoke.cont3:                                     ; preds = %invoke.cont1
  call void @_ZNSt7__cxx1118basic_stringstreamIcSt11char_traitsIcESaIcEED1Ev(ptr noundef nonnull align 8 dereferenceable(128) %ss) #9
  ret void

lpad:                                             ; preds = %invoke.cont1, %invoke.cont, %entry
  %4 = landingpad { ptr, i32 }
          cleanup
  %5 = extractvalue { ptr, i32 } %4, 0
  store ptr %5, ptr %exn.slot, align 8
  %6 = extractvalue { ptr, i32 } %4, 1
  store i32 %6, ptr %ehselector.slot, align 4
  call void @_ZNSt7__cxx1118basic_stringstreamIcSt11char_traitsIcESaIcEED1Ev(ptr noundef nonnull align 8 dereferenceable(128) %ss) #9
  br label %eh.resume

eh.resume:                                        ; preds = %lpad
  %exn = load ptr, ptr %exn.slot, align 8
  %sel = load i32, ptr %ehselector.slot, align 4
  %lpad.val = insertvalue { ptr, i32 } poison, ptr %exn, 0
  %lpad.val4 = insertvalue { ptr, i32 } %lpad.val, i32 %sel, 1
  resume { ptr, i32 } %lpad.val4
}